ccopy_reg
_reconstructor
p0
(cController
Controller
p1
c__builtin__
object
p2
Ntp3
Rp4
(dp5
S'_Controller__systemReleased'
p6
I01
sS'_Controller__organBank'
p7
g0
(cOrganBank
OrganBank
p8
g2
Ntp9
Rp10
(dp11
S'_OrganBank__amount'
p12
I0
sS'_OrganBank__organBank'
p13
(lp14
sbsS'_Controller__user'
p15
NsS'_Controller__patientBank'
p16
g0
(cPatientBank
PatientBank
p17
g2
Ntp18
Rp19
(dp20
S'_PatientBank__patientTree'
p21
g0
(cAVL
AVL
p22
g2
Ntp23
Rp24
(dp25
S'_BinarySearchTree__root'
p26
g0
(cNode
Node
p27
g2
Ntp28
Rp29
(dp30
S'_Node__right'
p31
NsS'_Node__data'
p32
NsS'_Node__parent'
p33
NsS'_Node__left'
p34
NsbsbsS'_PatientBank__ID'
p35
I1
sS'_PatientBank__procedureManager'
p36
g0
(cproceduresmanager
ProceduresManager
p37
g2
Ntp38
Rp39
(dp40
S'_ProceduresManager__now'
p41
cdatetime
datetime
p42
(S'\x07\xe1\x06\x13\x03\x1e\x06\x02\xc1\x10'
p43
tp44
Rp45
sbsbsS'_Controller__drugstore'
p46
g0
(cdrugstore
Drugstore
p47
g2
Ntp48
Rp49
(dp50
S'_Drugstore__drugstore'
p51
(dp52
sbsS'_Controller__employeeBank'
p53
g0
(cEmployeeBank
EmployeeBank
p54
g2
Ntp55
Rp56
(dp57
S'_EmployeeBank__numberOfAccounts'
p58
I5
sS'_EmployeeBank__now'
p59
g42
(S'\x07\xe1\x06\x13\x03\x1e\x06\x02\xc0\xb0'
p60
tp61
Rp62
sS'_EmployeeBank__accounts'
p63
(dp64
S'320174'
p65
g0
(ctechnician
Technician
p66
g2
Ntp67
Rp68
(dp69
S'_Employee__job'
p70
S'Technician'
p71
sS'_Employee__password'
p72
S'20123201'
p73
sS'_Employee__permissions'
p74
c__builtin__
set
p75
((lp76
cPERMISSIONS
Permissions
p77
(I2
tp78
Rp79
ag77
(I5
tp80
Rp81
atp82
Rp83
sS'_Employee__registration'
p84
g65
sS'_Employee__name'
p85
S'Ricardo'
p86
sS'_Employee__birth'
p87
(lp88
I15
aI12
aI1993
asbsS'120171'
p89
g0
(cmanager
Manager
p90
g2
Ntp91
Rp92
(dp93
g70
S'MANAGER'
p94
sg72
S'novo'
p95
sg74
g75
((lp96
g79
ag77
(I4
tp97
Rp98
ag77
(I3
tp99
Rp100
ag81
ag77
(I1
tp101
Rp102
atp103
Rp104
sg84
g89
sg85
S'Ionesio'
p105
sg87
(lp106
I9
aI12
aI1995
asbsS'220172'
p107
g0
(cdoctor
Doctor
p108
g2
Ntp109
Rp110
(dp111
g70
S'DOCTOR'
p112
sg72
S'19932201'
p113
sg74
g75
((lp114
g77
(I7
tp115
Rp116
ag77
(I6
tp117
Rp118
atp119
Rp120
sg84
g107
sg85
S'Andre'
p121
sg87
(lp122
I5
aI12
aI1993
asbsS'320173'
p123
g0
(g66
g2
Ntp124
Rp125
(dp126
g70
S'Technician'
p127
sg72
S'19803201'
p128
sg74
g75
((lp129
g79
ag81
atp130
Rp131
sg84
g123
sg85
S'Mathews'
p132
sg87
(lp133
I9
aI5
aI1980
asbssbsb.